; ModuleID = '24/2144.c'
source_filename = "24/2144.c"
target datalayout = "e-m:e-p270:32:32-p271:32:32-p272:64:64-i64:64-f80:128-n8:16:32:64-S128"
target triple = "x86_64-pc-linux-gnu"

@.str = private unnamed_addr constant [3 x i8] c"%s\00", align 1
@.str.1 = private unnamed_addr constant [7 x i8] c"%s\0A%s\0A\00", align 1

; Function Attrs: noinline nounwind uwtable
define dso_local i32 @main() #0 {
  %1 = alloca i32, align 4
  %2 = alloca [100 x i8], align 16
  %3 = alloca [100 x i8], align 16
  %4 = alloca [100 x i8], align 16
  %5 = alloca [100 x i8], align 16
  %6 = alloca i32, align 4
  %7 = alloca i32, align 4
  %8 = alloca i32, align 4
  store i32 0, i32* %1, align 4
  %9 = getelementptr inbounds [100 x i8], [100 x i8]* %2, i64 0, i64 0
  call void @llvm.memset.p0i8.i64(i8* align 16 %9, i8 0, i64 100, i1 false)
  %10 = getelementptr inbounds [100 x i8], [100 x i8]* %3, i64 0, i64 0
  call void @llvm.memset.p0i8.i64(i8* align 16 %10, i8 0, i64 100, i1 false)
  %11 = getelementptr inbounds [100 x i8], [100 x i8]* %2, i64 0, i64 0
  store i8 0, i8* %11, align 16
  %12 = getelementptr inbounds [100 x i8], [100 x i8]* %3, i64 0, i64 0
  store i8 0, i8* %12, align 16
  br label %13

13:                                               ; preds = %120, %0
  %14 = getelementptr inbounds [100 x i8], [100 x i8]* %4, i64 0, i64 0
  %15 = call i32 (i8*, ...) @__isoc99_scanf(i8* getelementptr inbounds ([3 x i8], [3 x i8]* @.str, i64 0, i64 0), i8* %14)
  %16 = icmp ne i32 %15, -1
  br i1 %16, label %17, label %121

17:                                               ; preds = %13
  %18 = getelementptr inbounds [100 x i8], [100 x i8]* %4, i64 0, i64 0
  %19 = call i64 @strlen(i8* %18) #4
  %20 = trunc i64 %19 to i32
  store i32 %20, i32* %8, align 4
  %21 = getelementptr inbounds [100 x i8], [100 x i8]* %2, i64 0, i64 0
  %22 = call i64 @strlen(i8* %21) #4
  %23 = icmp eq i64 %22, 0
  br i1 %23, label %24, label %27

24:                                               ; preds = %17
  %25 = getelementptr inbounds [100 x i8], [100 x i8]* %2, i64 0, i64 0
  %26 = getelementptr inbounds [100 x i8], [100 x i8]* %4, i64 0, i64 0
  call void @llvm.memcpy.p0i8.p0i8.i64(i8* align 16 %25, i8* align 16 %26, i64 100, i1 false)
  br label %27

27:                                               ; preds = %24, %17
  store i32 0, i32* %6, align 4
  br label %28

28:                                               ; preds = %71, %27
  %29 = load i32, i32* %6, align 4
  %30 = load i32, i32* %8, align 4
  %31 = icmp slt i32 %29, %30
  br i1 %31, label %32, label %74

32:                                               ; preds = %28
  %33 = load i32, i32* %6, align 4
  %34 = sext i32 %33 to i64
  %35 = getelementptr inbounds [100 x i8], [100 x i8]* %4, i64 0, i64 %34
  %36 = load i8, i8* %35, align 1
  %37 = sext i8 %36 to i32
  %38 = icmp eq i32 %37, 44
  br i1 %38, label %39, label %70

39:                                               ; preds = %32
  %40 = load i32, i32* %6, align 4
  %41 = sext i32 %40 to i64
  %42 = getelementptr inbounds [100 x i8], [100 x i8]* %4, i64 0, i64 %41
  store i8 0, i8* %42, align 1
  %43 = load i32, i32* %6, align 4
  %44 = add nsw i32 %43, 1
  store i32 %44, i32* %7, align 4
  br label %45

45:                                               ; preds = %60, %39
  %46 = load i32, i32* %7, align 4
  %47 = load i32, i32* %8, align 4
  %48 = icmp slt i32 %46, %47
  br i1 %48, label %49, label %63

49:                                               ; preds = %45
  %50 = load i32, i32* %7, align 4
  %51 = sext i32 %50 to i64
  %52 = getelementptr inbounds [100 x i8], [100 x i8]* %4, i64 0, i64 %51
  %53 = load i8, i8* %52, align 1
  %54 = load i32, i32* %7, align 4
  %55 = load i32, i32* %6, align 4
  %56 = sub nsw i32 %54, %55
  %57 = sub nsw i32 %56, 1
  %58 = sext i32 %57 to i64
  %59 = getelementptr inbounds [100 x i8], [100 x i8]* %5, i64 0, i64 %58
  store i8 %53, i8* %59, align 1
  br label %60

60:                                               ; preds = %49
  %61 = load i32, i32* %7, align 4
  %62 = add nsw i32 %61, 1
  store i32 %62, i32* %7, align 4
  br label %45

63:                                               ; preds = %45
  %64 = load i32, i32* %8, align 4
  %65 = load i32, i32* %6, align 4
  %66 = sub nsw i32 %64, %65
  %67 = sub nsw i32 %66, 1
  %68 = sext i32 %67 to i64
  %69 = getelementptr inbounds [100 x i8], [100 x i8]* %5, i64 0, i64 %68
  store i8 0, i8* %69, align 1
  br label %74

70:                                               ; preds = %32
  br label %71

71:                                               ; preds = %70
  %72 = load i32, i32* %6, align 4
  %73 = add nsw i32 %72, 1
  store i32 %73, i32* %6, align 4
  br label %28

74:                                               ; preds = %63, %28
  %75 = getelementptr inbounds [100 x i8], [100 x i8]* %4, i64 0, i64 0
  %76 = call i64 @strlen(i8* %75) #4
  %77 = trunc i64 %76 to i32
  store i32 %77, i32* %8, align 4
  %78 = load i32, i32* %8, align 4
  %79 = sext i32 %78 to i64
  %80 = getelementptr inbounds [100 x i8], [100 x i8]* %2, i64 0, i64 0
  %81 = call i64 @strlen(i8* %80) #4
  %82 = icmp ult i64 %79, %81
  br i1 %82, label %83, label %86

83:                                               ; preds = %74
  %84 = getelementptr inbounds [100 x i8], [100 x i8]* %2, i64 0, i64 0
  %85 = getelementptr inbounds [100 x i8], [100 x i8]* %4, i64 0, i64 0
  call void @llvm.memcpy.p0i8.p0i8.i64(i8* align 16 %84, i8* align 16 %85, i64 100, i1 false)
  br label %86

86:                                               ; preds = %83, %74
  %87 = load i32, i32* %8, align 4
  %88 = sext i32 %87 to i64
  %89 = getelementptr inbounds [100 x i8], [100 x i8]* %3, i64 0, i64 0
  %90 = call i64 @strlen(i8* %89) #4
  %91 = icmp ugt i64 %88, %90
  br i1 %91, label %92, label %95

92:                                               ; preds = %86
  %93 = getelementptr inbounds [100 x i8], [100 x i8]* %3, i64 0, i64 0
  %94 = getelementptr inbounds [100 x i8], [100 x i8]* %4, i64 0, i64 0
  call void @llvm.memcpy.p0i8.p0i8.i64(i8* align 16 %93, i8* align 16 %94, i64 100, i1 false)
  br label %95

95:                                               ; preds = %92, %86
  %96 = getelementptr inbounds [100 x i8], [100 x i8]* %5, i64 0, i64 0
  %97 = call i64 @strlen(i8* %96) #4
  %98 = trunc i64 %97 to i32
  store i32 %98, i32* %8, align 4
  %99 = load i32, i32* %8, align 4
  %100 = icmp ne i32 %99, 0
  br i1 %100, label %101, label %120

101:                                              ; preds = %95
  %102 = load i32, i32* %8, align 4
  %103 = sext i32 %102 to i64
  %104 = getelementptr inbounds [100 x i8], [100 x i8]* %2, i64 0, i64 0
  %105 = call i64 @strlen(i8* %104) #4
  %106 = icmp ult i64 %103, %105
  br i1 %106, label %107, label %110

107:                                              ; preds = %101
  %108 = getelementptr inbounds [100 x i8], [100 x i8]* %2, i64 0, i64 0
  %109 = getelementptr inbounds [100 x i8], [100 x i8]* %5, i64 0, i64 0
  call void @llvm.memcpy.p0i8.p0i8.i64(i8* align 16 %108, i8* align 16 %109, i64 100, i1 false)
  br label %110

110:                                              ; preds = %107, %101
  %111 = load i32, i32* %8, align 4
  %112 = sext i32 %111 to i64
  %113 = getelementptr inbounds [100 x i8], [100 x i8]* %3, i64 0, i64 0
  %114 = call i64 @strlen(i8* %113) #4
  %115 = icmp ugt i64 %112, %114
  br i1 %115, label %116, label %119

116:                                              ; preds = %110
  %117 = getelementptr inbounds [100 x i8], [100 x i8]* %3, i64 0, i64 0
  %118 = getelementptr inbounds [100 x i8], [100 x i8]* %5, i64 0, i64 0
  call void @llvm.memcpy.p0i8.p0i8.i64(i8* align 16 %117, i8* align 16 %118, i64 100, i1 false)
  br label %119

119:                                              ; preds = %116, %110
  br label %120

120:                                              ; preds = %119, %95
  br label %13

121:                                              ; preds = %13
  %122 = getelementptr inbounds [100 x i8], [100 x i8]* %3, i64 0, i64 0
  %123 = getelementptr inbounds [100 x i8], [100 x i8]* %2, i64 0, i64 0
  %124 = call i32 (i8*, ...) @printf(i8* getelementptr inbounds ([7 x i8], [7 x i8]* @.str.1, i64 0, i64 0), i8* %122, i8* %123)
  %125 = load i32, i32* %1, align 4
  ret i32 %125
}

; Function Attrs: argmemonly nounwind willreturn
declare void @llvm.memset.p0i8.i64(i8* nocapture writeonly, i8, i64, i1 immarg) #1

declare dso_local i32 @__isoc99_scanf(i8*, ...) #2

; Function Attrs: nounwind readonly
declare dso_local i64 @strlen(i8*) #3

; Function Attrs: argmemonly nounwind willreturn
declare void @llvm.memcpy.p0i8.p0i8.i64(i8* noalias nocapture writeonly, i8* noalias nocapture readonly, i64, i1 immarg) #1

declare dso_local i32 @printf(i8*, ...) #2


!llvm.module.flags = !{!0}
!llvm.ident = !{!1}

!0 = !{i32 1, !"wchar_size", i32 4}
!1 = !{!"clang version 10.0.0-4ubuntu1 "}
